target datalayout = "e-m:e-p270:32:32-p271:32:32-p272:64:64-i64:64-i128:128-f80:128-n8:16:32:64-S128"
target triple = "x86_64-pc-linux-gnu"

; Function Attrs: mustprogress uwtable
define internal noundef signext i8 @_ZL18hasValidTrailBytesPA256_Kih(ptr noundef %0, i8 noundef zeroext %1) #0 {
  %3 = alloca i8, align 1
  %4 = alloca ptr, align 8
  %5 = alloca i8, align 1
  %6 = alloca ptr, align 8
  %7 = alloca i32, align 4
  %8 = alloca i32, align 4
  %9 = alloca i32, align 4
  store ptr %0, ptr %4, align 8, !tbaa !41
  store i8 %1, ptr %5, align 1, !tbaa !40
  call void @llvm.lifetime.start.p0(i64 8, ptr %6) #10
  %10 = load ptr, ptr %4, align 8, !tbaa !41
  %11 = load i8, ptr %5, align 1, !tbaa !40
  %12 = zext i8 %11 to i64
  %13 = getelementptr inbounds nuw [256 x i32], ptr %10, i64 %12
  %14 = getelementptr inbounds [256 x i32], ptr %13, i64 0, i64 0
  store ptr %14, ptr %6, align 8, !tbaa !41
  call void @llvm.lifetime.start.p0(i64 4, ptr %7) #10
  call void @llvm.lifetime.start.p0(i64 4, ptr %8) #10
  %15 = load ptr, ptr %6, align 8, !tbaa !41
  %16 = getelementptr inbounds i32, ptr %15, i64 161
  %17 = load i32, ptr %16, align 4, !tbaa !28
  store i32 %17, ptr %8, align 4, !tbaa !28
  %18 = load i32, ptr %8, align 4, !tbaa !28
  %19 = icmp sge i32 %18, 0
  br i1 %19, label %26, label %20

20:                                               ; preds = %2
  %21 = load i32, ptr %8, align 4, !tbaa !28
  %22 = lshr i32 %21, 20
  %23 = and i32 %22, 15
  %24 = icmp ne i32 %23, 7
  br i1 %24, label %25, label %26

25:                                               ; preds = %20
  store i8 1, ptr %3, align 1
  store i32 1, ptr %9, align 4
  br label %85

26:                                               ; preds = %20, %2
  %27 = load ptr, ptr %6, align 8, !tbaa !41
  %28 = getelementptr inbounds i32, ptr %27, i64 65
  %29 = load i32, ptr %28, align 4, !tbaa !28
  store i32 %29, ptr %8, align 4, !tbaa !28
  %30 = load i32, ptr %8, align 4, !tbaa !28
  %31 = icmp sge i32 %30, 0
  br i1 %31, label %38, label %32

32:                                               ; preds = %26
  %33 = load i32, ptr %8, align 4, !tbaa !28
  %34 = lshr i32 %33, 20
  %35 = and i32 %34, 15
  %36 = icmp ne i32 %35, 7
  br i1 %36, label %37, label %38

37:                                               ; preds = %32
  store i8 1, ptr %3, align 1
  store i32 1, ptr %9, align 4
  br label %85

38:                                               ; preds = %32, %26
  store i32 0, ptr %7, align 4, !tbaa !28
  br label %39

39:                                               ; preds = %57, %38
  %40 = load i32, ptr %7, align 4, !tbaa !28
  %41 = icmp sle i32 %40, 255
  br i1 %41, label %42, label %60

42:                                               ; preds = %39
  %43 = load ptr, ptr %6, align 8, !tbaa !41
  %44 = load i32, ptr %7, align 4, !tbaa !28
  %45 = sext i32 %44 to i64
  %46 = getelementptr inbounds i32, ptr %43, i64 %45
  %47 = load i32, ptr %46, align 4, !tbaa !28
  store i32 %47, ptr %8, align 4, !tbaa !28
  %48 = load i32, ptr %8, align 4, !tbaa !28
  %49 = icmp sge i32 %48, 0
  br i1 %49, label %56, label %50

50:                                               ; preds = %42
  %51 = load i32, ptr %8, align 4, !tbaa !28
  %52 = lshr i32 %51, 20
  %53 = and i32 %52, 15
  %54 = icmp ne i32 %53, 7
  br i1 %54, label %55, label %56

55:                                               ; preds = %50
  store i8 1, ptr %3, align 1
  store i32 1, ptr %9, align 4
  br label %85

56:                                               ; preds = %50, %42
  br label %57

57:                                               ; preds = %56
  %58 = load i32, ptr %7, align 4, !tbaa !28
  %59 = add nsw i32 %58, 1
  store i32 %59, ptr %7, align 4, !tbaa !28
  br label %39, !llvm.loop !219

60:                                               ; preds = %39
  store i32 0, ptr %7, align 4, !tbaa !28
  br label %61

61:                                               ; preds = %81, %60
  %62 = load i32, ptr %7, align 4, !tbaa !28
  %63 = icmp sle i32 %62, 255
  br i1 %63, label %64, label %84

64:                                               ; preds = %61
  %65 = load ptr, ptr %6, align 8, !tbaa !41
  %66 = load i32, ptr %7, align 4, !tbaa !28
  %67 = sext i32 %66 to i64
  %68 = getelementptr inbounds i32, ptr %65, i64 %67
  %69 = load i32, ptr %68, align 4, !tbaa !28
  store i32 %69, ptr %8, align 4, !tbaa !28
  %70 = load i32, ptr %8, align 4, !tbaa !28
  %71 = icmp sge i32 %70, 0
  br i1 %71, label %72, label %80

72:                                               ; preds = %64
  %73 = load ptr, ptr %4, align 8, !tbaa !41
  %74 = load i32, ptr %8, align 4, !tbaa !28
  %75 = lshr i32 %74, 24
  %76 = trunc i32 %75 to i8
  %77 = call noundef signext i8 @_ZL18hasValidTrailBytesPA256_Kih(ptr noundef %73, i8 noundef zeroext %76)
  %78 = icmp ne i8 %77, 0
  br i1 %78, label %79, label %80

79:                                               ; preds = %72
  store i8 1, ptr %3, align 1
  store i32 1, ptr %9, align 4
  br label %85

80:                                               ; preds = %72, %64
  br label %81

81:                                               ; preds = %80
  %82 = load i32, ptr %7, align 4, !tbaa !28
  %83 = add nsw i32 %82, 1
  store i32 %83, ptr %7, align 4, !tbaa !28
  br label %61, !llvm.loop !220

84:                                               ; preds = %61
  store i8 0, ptr %3, align 1
  store i32 1, ptr %9, align 4
  br label %85

85:                                               ; preds = %84, %79, %55, %37, %25
  call void @llvm.lifetime.end.p0(i64 4, ptr %8) #10
  call void @llvm.lifetime.end.p0(i64 4, ptr %7) #10
  call void @llvm.lifetime.end.p0(i64 8, ptr %6) #10
  %86 = load i8, ptr %3, align 1
  ret i8 %86
}