; Function Attrs: mustprogress nofree nosync nounwind willreturn memory(argmem: read) uwtable
define internal fastcc noundef signext range(i8 0, 2) i8 @_ZL18hasValidTrailBytesPA256_Kih(ptr noundef readonly captures(none) %0, i8 noundef zeroext range(i8 0, -128) %1) unnamed_addr #12 {
  %3 = zext nneg i8 %1 to i64
  %4 = getelementptr inbounds nuw [256 x i32], ptr %0, i64 %3
  %5 = getelementptr inbounds nuw i8, ptr %4, i64 644
  %6 = load i32, ptr %5, align 4, !tbaa !27
  %7 = icmp sgt i32 %6, -1
  %8 = and i32 %6, 15728640
  %.not = icmp eq i32 %8, 7340032
  %or.cond = or i1 %7, %.not
  br i1 %or.cond, label %9, label %.loopexit

9:                                                ; preds = %2
  %10 = getelementptr inbounds nuw i8, ptr %4, i64 260
  %11 = load i32, ptr %10, align 4, !tbaa !27
  %12 = icmp sgt i32 %11, -1
  %13 = and i32 %11, 15728640
  %.not26 = icmp eq i32 %13, 7340032
  %or.cond29 = or i1 %12, %.not26
  br i1 %or.cond29, label %.preheader31, label %.loopexit

14:                                               ; preds = %.preheader31
  %indvars.iv.next = add nuw nsw i64 %indvars.iv, 1
  %exitcond.not = icmp eq i64 %indvars.iv.next, 256
  br i1 %exitcond.not, label %.preheader, label %.preheader31, !llvm.loop !193

.preheader31:                                     ; preds = %9, %14
  %indvars.iv = phi i64 [ %indvars.iv.next, %14 ], [ 0, %9 ]
  %15 = getelementptr inbounds nuw i32, ptr %4, i64 %indvars.iv
  %16 = load i32, ptr %15, align 4, !tbaa !27
  %17 = icmp sgt i32 %16, -1
  %18 = and i32 %16, 15728640
  %.not28 = icmp eq i32 %18, 7340032
  %or.cond30 = or i1 %17, %.not28
  br i1 %or.cond30, label %14, label %.loopexit

.preheader:                                       ; preds = %14, %26
  %indvars.iv37 = phi i64 [ %indvars.iv.next38, %26 ], [ 0, %14 ]
  %19 = getelementptr inbounds nuw i32, ptr %4, i64 %indvars.iv37
  %20 = load i32, ptr %19, align 4, !tbaa !27
  %21 = icmp sgt i32 %20, -1
  br i1 %21, label %22, label %26

22:                                               ; preds = %.preheader
  %23 = lshr i32 %20, 24
  %24 = trunc nuw nsw i32 %23 to i8
  %25 = tail call fastcc noundef signext i8 @_ZL18hasValidTrailBytesPA256_Kih(ptr noundef nonnull %0, i8 noundef zeroext %24)
  %.not27 = icmp eq i8 %25, 0
  br i1 %.not27, label %26, label %.loopexit

26:                                               ; preds = %.preheader, %22
  %indvars.iv.next38 = add nuw nsw i64 %indvars.iv37, 1
  %exitcond40.not = icmp eq i64 %indvars.iv.next38, 256
  br i1 %exitcond40.not, label %.loopexit, label %.preheader, !llvm.loop !194

.loopexit:                                        ; preds = %.preheader31, %26, %22, %9, %2
  %.021 = phi i8 [ 1, %2 ], [ 1, %9 ], [ 0, %26 ], [ 1, %22 ], [ 1, %.preheader31 ]
  ret i8 %.021
}